; Function Attrs: mustprogress uwtable
define void @_ZN3zmq29zap_client_common_handshake_tC2EPNS_14session_base_tERKNSt7__cxx1112basic_stringIcSt11char_traitsIcESaIcEEERKNS_9options_tENS0_7state_tE(ptr noundef nonnull align 8 dereferenceable(80) %this, ptr nocapture noundef readonly %vtt, ptr nocapture noundef readnone %session_, ptr noundef nonnull align 8 dereferenceable(32) %peer_address_, ptr nocapture noundef nonnull readnone align 8 dereferenceable(1336) %options_, i32 noundef %zap_reply_ok_state_) unnamed_addr #0 align 2 {
entry:
  %0 = getelementptr inbounds i8, ptr %vtt, i64 8
  %1 = load ptr, ptr %0, align 8
  store ptr %1, ptr %this, align 8
  %2 = getelementptr inbounds i8, ptr %vtt, i64 16
  %3 = load ptr, ptr %2, align 8
  %vbase.offset.ptr.i = getelementptr i8, ptr %1, i64 -24
  %vbase.offset.i = load i64, ptr %vbase.offset.ptr.i, align 8
  %add.ptr.i = getelementptr inbounds i8, ptr %this, i64 %vbase.offset.i
  store ptr %3, ptr %add.ptr.i, align 8
  %peer_address.i = getelementptr inbounds i8, ptr %this, i64 8
  tail call void @_ZNSt7__cxx1112basic_stringIcSt11char_traitsIcESaIcEEC1ERKS4_(ptr noundef nonnull align 8 dereferenceable(32) %peer_address.i, ptr noundef nonnull align 8 dereferenceable(32) %peer_address_)
  %status_code.i = getelementptr inbounds i8, ptr %this, i64 40
  tail call void @_ZNSt7__cxx1112basic_stringIcSt11char_traitsIcESaIcEEC1Ev(ptr noundef nonnull align 8 dereferenceable(32) %status_code.i) #13
  %4 = load ptr, ptr %vtt, align 8
  store ptr %4, ptr %this, align 8
  %5 = getelementptr inbounds i8, ptr %vtt, i64 24
  %6 = load ptr, ptr %5, align 8
  %vbase.offset.ptr = getelementptr i8, ptr %4, i64 -24
  %vbase.offset = load i64, ptr %vbase.offset.ptr, align 8
  %add.ptr = getelementptr inbounds i8, ptr %this, i64 %vbase.offset
  store ptr %6, ptr %add.ptr, align 8
  %state = getelementptr inbounds i8, ptr %this, i64 72
  store i32 0, ptr %state, align 8
  %_zap_reply_ok_state = getelementptr inbounds i8, ptr %this, i64 76
  store i32 %zap_reply_ok_state_, ptr %_zap_reply_ok_state, align 4
  ret void
}